; ModuleID = '13/848.cpp'
source_filename = "13/848.cpp"
target datalayout = "e-m:e-p270:32:32-p271:32:32-p272:64:64-i64:64-f80:128-n8:16:32:64-S128"
target triple = "x86_64-pc-linux-gnu"

%"class.std::ios_base::Init" = type { i8 }
%"class.std::basic_istream" = type { i32 (...)**, i64, %"class.std::basic_ios" }
%"class.std::basic_ios" = type { %"class.std::ios_base", %"class.std::basic_ostream"*, i8, i8, %"class.std::basic_streambuf"*, %"class.std::ctype"*, %"class.std::num_put"*, %"class.std::num_get"* }
%"class.std::ios_base" = type { i32 (...)**, i64, i64, i32, i32, i32, %"struct.std::ios_base::_Callback_list"*, %"struct.std::ios_base::_Words", [8 x %"struct.std::ios_base::_Words"], i32, %"struct.std::ios_base::_Words"*, %"class.std::locale" }
%"struct.std::ios_base::_Callback_list" = type { %"struct.std::ios_base::_Callback_list"*, void (i32, %"class.std::ios_base"*, i32)*, i32, i32 }
%"struct.std::ios_base::_Words" = type { i8*, i64 }
%"class.std::locale" = type { %"class.std::locale::_Impl"* }
%"class.std::locale::_Impl" = type { i32, %"class.std::locale::facet"**, i64, %"class.std::locale::facet"**, i8** }
%"class.std::locale::facet" = type <{ i32 (...)**, i32, [4 x i8] }>
%"class.std::basic_ostream" = type { i32 (...)**, %"class.std::basic_ios" }
%"class.std::basic_streambuf" = type { i32 (...)**, i8*, i8*, i8*, i8*, i8*, i8*, %"class.std::locale" }
%"class.std::ctype" = type <{ %"class.std::locale::facet.base", [4 x i8], %struct.__locale_struct*, i8, [7 x i8], i32*, i32*, i16*, i8, [256 x i8], [256 x i8], i8, [6 x i8] }>
%"class.std::locale::facet.base" = type <{ i32 (...)**, i32 }>
%struct.__locale_struct = type { [13 x %struct.__locale_data*], i16*, i32*, i32*, [13 x i8*] }
%struct.__locale_data = type opaque
%"class.std::num_put" = type { %"class.std::locale::facet.base", [4 x i8] }
%"class.std::num_get" = type { %"class.std::locale::facet.base", [4 x i8] }

@_ZStL8__ioinit = internal global %"class.std::ios_base::Init" zeroinitializer, align 1
@__dso_handle = external hidden global i8
@_ZSt3cin = external dso_local global %"class.std::basic_istream", align 8
@_ZSt4cout = external dso_local global %"class.std::basic_ostream", align 8
@.str = private unnamed_addr constant [2 x i8] c" \00", align 1
@llvm.global_ctors = appending global [1 x { i32, void ()*, i8* }] [{ i32, void ()*, i8* } { i32 65535, void ()* @_GLOBAL__sub_I_848.cpp, i8* null }]

; Function Attrs: noinline uwtable
define internal void @__cxx_global_var_init() #0 section ".text.startup" {
  call void @_ZNSt8ios_base4InitC1Ev(%"class.std::ios_base::Init"* @_ZStL8__ioinit)
  %1 = call i32 @__cxa_atexit(void (i8*)* bitcast (void (%"class.std::ios_base::Init"*)* @_ZNSt8ios_base4InitD1Ev to void (i8*)*), i8* getelementptr inbounds (%"class.std::ios_base::Init", %"class.std::ios_base::Init"* @_ZStL8__ioinit, i32 0, i32 0), i8* @__dso_handle) #3
  ret void
}

declare dso_local void @_ZNSt8ios_base4InitC1Ev(%"class.std::ios_base::Init"*) unnamed_addr #1

; Function Attrs: nounwind
declare dso_local void @_ZNSt8ios_base4InitD1Ev(%"class.std::ios_base::Init"*) unnamed_addr #2

; Function Attrs: nounwind
declare dso_local i32 @__cxa_atexit(void (i8*)*, i8*, i8*) #3

; Function Attrs: noinline norecurse uwtable
define dso_local i32 @main() #4 {
  %1 = alloca i32, align 4
  %2 = alloca i32, align 4
  %3 = alloca i32, align 4
  %4 = alloca i32, align 4
  %5 = alloca i32, align 4
  %6 = alloca i8*, align 8
  %7 = alloca i64, align 8
  store i32 0, i32* %1, align 4
  %8 = call dereferenceable(280) %"class.std::basic_istream"* @_ZNSirsERi(%"class.std::basic_istream"* @_ZSt3cin, i32* dereferenceable(4) %2)
  %9 = load i32, i32* %2, align 4
  %10 = zext i32 %9 to i64
  %11 = call i8* @llvm.stacksave()
  store i8* %11, i8** %6, align 8
  %12 = alloca i32, i64 %10, align 16
  store i64 %10, i64* %7, align 8
  store i32 0, i32* %3, align 4
  br label %13

13:                                               ; preds = %22, %0
  %14 = load i32, i32* %3, align 4
  %15 = load i32, i32* %2, align 4
  %16 = icmp slt i32 %14, %15
  br i1 %16, label %17, label %25

17:                                               ; preds = %13
  %18 = load i32, i32* %3, align 4
  %19 = sext i32 %18 to i64
  %20 = getelementptr inbounds i32, i32* %12, i64 %19
  %21 = call dereferenceable(280) %"class.std::basic_istream"* @_ZNSirsERi(%"class.std::basic_istream"* @_ZSt3cin, i32* dereferenceable(4) %20)
  br label %22

22:                                               ; preds = %17
  %23 = load i32, i32* %3, align 4
  %24 = add nsw i32 %23, 1
  store i32 %24, i32* %3, align 4
  br label %13

25:                                               ; preds = %13
  store i32 0, i32* %3, align 4
  br label %26

26:                                               ; preds = %81, %25
  %27 = load i32, i32* %3, align 4
  %28 = load i32, i32* %2, align 4
  %29 = icmp slt i32 %27, %28
  br i1 %29, label %30, label %84

30:                                               ; preds = %26
  %31 = load i32, i32* %3, align 4
  %32 = add nsw i32 %31, 1
  store i32 %32, i32* %4, align 4
  br label %33

33:                                               ; preds = %77, %30
  %34 = load i32, i32* %4, align 4
  %35 = load i32, i32* %2, align 4
  %36 = icmp slt i32 %34, %35
  br i1 %36, label %37, label %80

37:                                               ; preds = %33
  br label %38

38:                                               ; preds = %73, %37
  %39 = load i32, i32* %4, align 4
  %40 = sext i32 %39 to i64
  %41 = getelementptr inbounds i32, i32* %12, i64 %40
  %42 = load i32, i32* %41, align 4
  %43 = load i32, i32* %3, align 4
  %44 = sext i32 %43 to i64
  %45 = getelementptr inbounds i32, i32* %12, i64 %44
  %46 = load i32, i32* %45, align 4
  %47 = icmp eq i32 %42, %46
  br i1 %47, label %48, label %52

48:                                               ; preds = %38
  %49 = load i32, i32* %4, align 4
  %50 = load i32, i32* %2, align 4
  %51 = icmp slt i32 %49, %50
  br label %52

52:                                               ; preds = %48, %38
  %53 = phi i1 [ false, %38 ], [ %51, %48 ]
  br i1 %53, label %54, label %76

54:                                               ; preds = %52
  %55 = load i32, i32* %4, align 4
  store i32 %55, i32* %5, align 4
  br label %56

56:                                               ; preds = %70, %54
  %57 = load i32, i32* %5, align 4
  %58 = load i32, i32* %2, align 4
  %59 = sub nsw i32 %58, 1
  %60 = icmp slt i32 %57, %59
  br i1 %60, label %61, label %73

61:                                               ; preds = %56
  %62 = load i32, i32* %5, align 4
  %63 = add nsw i32 %62, 1
  %64 = sext i32 %63 to i64
  %65 = getelementptr inbounds i32, i32* %12, i64 %64
  %66 = load i32, i32* %65, align 4
  %67 = load i32, i32* %5, align 4
  %68 = sext i32 %67 to i64
  %69 = getelementptr inbounds i32, i32* %12, i64 %68
  store i32 %66, i32* %69, align 4
  br label %70

70:                                               ; preds = %61
  %71 = load i32, i32* %5, align 4
  %72 = add nsw i32 %71, 1
  store i32 %72, i32* %5, align 4
  br label %56

73:                                               ; preds = %56
  %74 = load i32, i32* %2, align 4
  %75 = add nsw i32 %74, -1
  store i32 %75, i32* %2, align 4
  br label %38

76:                                               ; preds = %52
  br label %77

77:                                               ; preds = %76
  %78 = load i32, i32* %4, align 4
  %79 = add nsw i32 %78, 1
  store i32 %79, i32* %4, align 4
  br label %33

80:                                               ; preds = %33
  br label %81

81:                                               ; preds = %80
  %82 = load i32, i32* %3, align 4
  %83 = add nsw i32 %82, 1
  store i32 %83, i32* %3, align 4
  br label %26

84:                                               ; preds = %26
  store i32 0, i32* %3, align 4
  br label %85

85:                                               ; preds = %97, %84
  %86 = load i32, i32* %3, align 4
  %87 = load i32, i32* %2, align 4
  %88 = sub nsw i32 %87, 1
  %89 = icmp slt i32 %86, %88
  br i1 %89, label %90, label %100

90:                                               ; preds = %85
  %91 = load i32, i32* %3, align 4
  %92 = sext i32 %91 to i64
  %93 = getelementptr inbounds i32, i32* %12, i64 %92
  %94 = load i32, i32* %93, align 4
  %95 = call dereferenceable(272) %"class.std::basic_ostream"* @_ZNSolsEi(%"class.std::basic_ostream"* @_ZSt4cout, i32 %94)
  %96 = call dereferenceable(272) %"class.std::basic_ostream"* @_ZStlsISt11char_traitsIcEERSt13basic_ostreamIcT_ES5_PKc(%"class.std::basic_ostream"* dereferenceable(272) %95, i8* getelementptr inbounds ([2 x i8], [2 x i8]* @.str, i64 0, i64 0))
  br label %97

97:                                               ; preds = %90
  %98 = load i32, i32* %3, align 4
  %99 = add nsw i32 %98, 1
  store i32 %99, i32* %3, align 4
  br label %85

100:                                              ; preds = %85
  %101 = load i32, i32* %2, align 4
  %102 = sub nsw i32 %101, 1
  %103 = sext i32 %102 to i64
  %104 = getelementptr inbounds i32, i32* %12, i64 %103
  %105 = load i32, i32* %104, align 4
  %106 = call dereferenceable(272) %"class.std::basic_ostream"* @_ZNSolsEi(%"class.std::basic_ostream"* @_ZSt4cout, i32 %105)
  store i32 0, i32* %1, align 4
  %107 = load i8*, i8** %6, align 8
  call void @llvm.stackrestore(i8* %107)
  %108 = load i32, i32* %1, align 4
  ret i32 %108
}

declare dso_local dereferenceable(280) %"class.std::basic_istream"* @_ZNSirsERi(%"class.std::basic_istream"*, i32* dereferenceable(4)) #1

; Function Attrs: nounwind
declare i8* @llvm.stacksave() #3

declare dso_local dereferenceable(272) %"class.std::basic_ostream"* @_ZStlsISt11char_traitsIcEERSt13basic_ostreamIcT_ES5_PKc(%"class.std::basic_ostream"* dereferenceable(272), i8*) #1

declare dso_local dereferenceable(272) %"class.std::basic_ostream"* @_ZNSolsEi(%"class.std::basic_ostream"*, i32) #1

; Function Attrs: nounwind
declare void @llvm.stackrestore(i8*) #3

; Function Attrs: noinline uwtable
define internal void @_GLOBAL__sub_I_848.cpp() #0 section ".text.startup" {
  call void @__cxx_global_var_init()
  ret void
}


!llvm.module.flags = !{!0}
!llvm.ident = !{!1}

!0 = !{i32 1, !"wchar_size", i32 4}
!1 = !{!"clang version 10.0.0-4ubuntu1 "}
